target datalayout = "e-m:e-p270:32:32-p271:32:32-p272:64:64-i64:64-i128:128-f80:128-n8:16:32:64-S128"
target triple = "x86_64-pc-linux-gnu"

%struct.AVFormatContext = type { ptr, ptr, ptr, ptr, ptr, i32, i32, ptr, i32, ptr, i32, ptr, ptr, i64, i64, i64, i32, i32, i32, i64, i64, ptr, i32, i32, ptr, i32, i32, i32, i32, ptr, i64, i32, i32, %struct.AVIOInterruptCB, i32, i32, i32, i32, i64, i32, i32, i32, i32, i32, i32, i32, i32, i32, i32, i32, i32, i64, i32, i32, i32, i32, i32, ptr, ptr, ptr, ptr, i32, ptr, ptr, ptr, ptr, i32, ptr, ptr, i64, ptr, ptr, ptr, i64 }
%struct.AVIOInterruptCB = type { ptr, ptr }
%struct.AVInputFormat = type { ptr, ptr, i32, ptr, ptr, ptr, ptr }
%struct.FFInputFormat = type { %struct.AVInputFormat, i32, i32, i32, ptr, ptr, ptr, ptr, ptr, ptr, ptr, ptr, ptr, ptr }

@.str.10 = private unnamed_addr constant [7 x i8] c"image2\00", align 1

; Function Attrs: inlinehint nounwind uwtable
define internal ptr @ffifmt(ptr noundef %0) #4 {
  %2 = alloca ptr, align 8
  store ptr %0, ptr %2, align 8, !tbaa !42
  %3 = load ptr, ptr %2, align 8, !tbaa !42
  ret ptr %3
}

; Function Attrs: nounwind uwtable
define void @avformat_close_input(ptr noundef %0) #0 {
  %2 = alloca ptr, align 8
  %3 = alloca ptr, align 8
  %4 = alloca ptr, align 8
  %5 = alloca i32, align 4
  store ptr %0, ptr %2, align 8, !tbaa !38
  call void @llvm.lifetime.start.p0(i64 8, ptr %3) #13
  call void @llvm.lifetime.start.p0(i64 8, ptr %4) #13
  %6 = load ptr, ptr %2, align 8, !tbaa !38
  %7 = icmp ne ptr %6, null
  br i1 %7, label %8, label %12

8:                                                ; preds = %1
  %9 = load ptr, ptr %2, align 8, !tbaa !38
  %10 = load ptr, ptr %9, align 8, !tbaa !46
  %11 = icmp ne ptr %10, null
  br i1 %11, label %13, label %12

12:                                               ; preds = %8, %1
  store i32 1, ptr %5, align 4
  br label %74

13:                                               ; preds = %8
  %14 = load ptr, ptr %2, align 8, !tbaa !38
  %15 = load ptr, ptr %14, align 8, !tbaa !46
  store ptr %15, ptr %3, align 8, !tbaa !46
  %16 = load ptr, ptr %3, align 8, !tbaa !46
  %17 = getelementptr inbounds nuw %struct.AVFormatContext, ptr %16, i32 0, i32 4
  %18 = load ptr, ptr %17, align 8, !tbaa !66
  store ptr %18, ptr %4, align 8, !tbaa !102
  %19 = load ptr, ptr %3, align 8, !tbaa !46
  %20 = getelementptr inbounds nuw %struct.AVFormatContext, ptr %19, i32 0, i32 1
  %21 = load ptr, ptr %20, align 8, !tbaa !65
  %22 = icmp ne ptr %21, null
  br i1 %22, label %23, label %39

23:                                               ; preds = %13
  %24 = load ptr, ptr %3, align 8, !tbaa !46
  %25 = getelementptr inbounds nuw %struct.AVFormatContext, ptr %24, i32 0, i32 1
  %26 = load ptr, ptr %25, align 8, !tbaa !65
  %27 = getelementptr inbounds nuw %struct.AVInputFormat, ptr %26, i32 0, i32 0
  %28 = load ptr, ptr %27, align 8, !tbaa !76
  %29 = call i32 @strcmp(ptr noundef %28, ptr noundef @.str.10) #14
  %30 = icmp ne i32 %29, 0
  br i1 %30, label %31, label %39

31:                                               ; preds = %23
  %32 = load ptr, ptr %3, align 8, !tbaa !46
  %33 = getelementptr inbounds nuw %struct.AVFormatContext, ptr %32, i32 0, i32 1
  %34 = load ptr, ptr %33, align 8, !tbaa !65
  %35 = getelementptr inbounds nuw %struct.AVInputFormat, ptr %34, i32 0, i32 2
  %36 = load i32, ptr %35, align 8, !tbaa !80
  %37 = and i32 %36, 1
  %38 = icmp ne i32 %37, 0
  br i1 %38, label %45, label %39

39:                                               ; preds = %31, %23, %13
  %40 = load ptr, ptr %3, align 8, !tbaa !46
  %41 = getelementptr inbounds nuw %struct.AVFormatContext, ptr %40, i32 0, i32 18
  %42 = load i32, ptr %41, align 8, !tbaa !67
  %43 = and i32 %42, 128
  %44 = icmp ne i32 %43, 0
  br i1 %44, label %45, label %46

45:                                               ; preds = %39, %31
  store ptr null, ptr %4, align 8, !tbaa !102
  br label %46

46:                                               ; preds = %45, %39
  %47 = load ptr, ptr %3, align 8, !tbaa !46
  %48 = getelementptr inbounds nuw %struct.AVFormatContext, ptr %47, i32 0, i32 1
  %49 = load ptr, ptr %48, align 8, !tbaa !65
  %50 = icmp ne ptr %49, null
  br i1 %50, label %51, label %69

51:                                               ; preds = %46
  %52 = load ptr, ptr %3, align 8, !tbaa !46
  %53 = getelementptr inbounds nuw %struct.AVFormatContext, ptr %52, i32 0, i32 1
  %54 = load ptr, ptr %53, align 8, !tbaa !65
  %55 = call ptr @ffifmt(ptr noundef %54)
  %56 = getelementptr inbounds nuw %struct.FFInputFormat, ptr %55, i32 0, i32 7
  %57 = load ptr, ptr %56, align 8, !tbaa !97
  %58 = icmp ne ptr %57, null
  br i1 %58, label %59, label %68

59:                                               ; preds = %51
  %60 = load ptr, ptr %3, align 8, !tbaa !46
  %61 = getelementptr inbounds nuw %struct.AVFormatContext, ptr %60, i32 0, i32 1
  %62 = load ptr, ptr %61, align 8, !tbaa !65
  %63 = call ptr @ffifmt(ptr noundef %62)
  %64 = getelementptr inbounds nuw %struct.FFInputFormat, ptr %63, i32 0, i32 7
  %65 = load ptr, ptr %64, align 8, !tbaa !97
  %66 = load ptr, ptr %3, align 8, !tbaa !46
  %67 = call i32 %65(ptr noundef %66)
  br label %68

68:                                               ; preds = %59, %51
  br label %69

69:                                               ; preds = %68, %46
  %70 = load ptr, ptr %3, align 8, !tbaa !46
  call void @avformat_free_context(ptr noundef %70)
  %71 = load ptr, ptr %2, align 8, !tbaa !38
  store ptr null, ptr %71, align 8, !tbaa !46
  %72 = load ptr, ptr %4, align 8, !tbaa !102
  %73 = call i32 @avio_close(ptr noundef %72)
  store i32 0, ptr %5, align 4
  br label %74

74:                                               ; preds = %69, %12
  call void @llvm.lifetime.end.p0(i64 8, ptr %4) #13
  call void @llvm.lifetime.end.p0(i64 8, ptr %3) #13
  %75 = load i32, ptr %5, align 4
  switch i32 %75, label %77 [
    i32 0, label %76
    i32 1, label %76
  ]

76:                                               ; preds = %74, %74
  ret void

77:                                               ; preds = %74
  unreachable
}