; Function Attrs: nounwind uwtable
define void @avformat_close_input(ptr noundef captures(address_is_null) %0) local_unnamed_addr #1 {
  %.not = icmp eq ptr %0, null
  br i1 %.not, label %29, label %2

2:                                                ; preds = %1
  %3 = load ptr, ptr %0, align 8, !tbaa !33
  %.not19 = icmp eq ptr %3, null
  br i1 %.not19, label %29, label %4

4:                                                ; preds = %2
  %5 = getelementptr inbounds nuw i8, ptr %3, i64 32
  %6 = load ptr, ptr %5, align 8, !tbaa !50
  %7 = getelementptr inbounds nuw i8, ptr %3, i64 8
  %8 = load ptr, ptr %7, align 8, !tbaa !49
  %.not20 = icmp eq ptr %8, null
  br i1 %.not20, label %16, label %9

9:                                                ; preds = %4
  %10 = load ptr, ptr %8, align 8, !tbaa !68
  %11 = tail call i32 @strcmp(ptr noundef nonnull dereferenceable(1) %10, ptr noundef nonnull dereferenceable(7) @.str.10) #16
  %.not21 = icmp eq i32 %11, 0
  br i1 %.not21, label %16, label %12

12:                                               ; preds = %9
  %13 = getelementptr inbounds nuw i8, ptr %8, i64 16
  %14 = load i32, ptr %13, align 8, !tbaa !56
  %15 = and i32 %14, 1
  %.not22 = icmp eq i32 %15, 0
  br i1 %.not22, label %16, label %20

16:                                               ; preds = %12, %9, %4
  %17 = getelementptr inbounds nuw i8, ptr %3, i64 128
  %18 = load i32, ptr %17, align 8, !tbaa !51
  %19 = and i32 %18, 128
  %.not23 = icmp eq i32 %19, 0
  br i1 %.not23, label %21, label %20

20:                                               ; preds = %16, %12
  br label %21

21:                                               ; preds = %20, %16
  %.0 = phi ptr [ null, %20 ], [ %6, %16 ]
  br i1 %.not20, label %27, label %22

22:                                               ; preds = %21
  %23 = getelementptr inbounds nuw i8, ptr %8, i64 96
  %24 = load ptr, ptr %23, align 8, !tbaa !86
  %.not25 = icmp eq ptr %24, null
  br i1 %.not25, label %27, label %25

25:                                               ; preds = %22
  %26 = tail call i32 %24(ptr noundef nonnull %3) #15
  br label %27

27:                                               ; preds = %22, %25, %21
  tail call void @avformat_free_context(ptr noundef nonnull %3) #15
  store ptr null, ptr %0, align 8, !tbaa !33
  %28 = tail call i32 @avio_close(ptr noundef %.0) #15
  br label %29

29:                                               ; preds = %1, %2, %27
  ret void
}